; Function Attrs: mustprogress uwtable
define hidden void @_ZN6Assimp4Ogre20OgreBinarySerializer25ReadSkeletonAnimationLinkEPNS0_8SkeletonE(ptr nocapture noundef nonnull readonly align 8 dereferenceable(20) %this, ptr nocapture noundef readnone %0) local_unnamed_addr #2 align 2 personality ptr @__gxx_personality_v0 {
entry:
  %agg.tmp.ensured = alloca %"class.std::__cxx11::basic_string", align 8
  call void @_ZN6Assimp4Ogre20OgreBinarySerializer8ReadLineB5cxx11Ev(ptr nonnull sret(%"class.std::__cxx11::basic_string") align 8 %agg.tmp.ensured, ptr noundef nonnull align 8 dereferenceable(20) %this)
  call void @_ZNSt7__cxx1112basic_stringIcSt11char_traitsIcESaIcEED1Ev(ptr noundef nonnull align 8 dereferenceable(32) %agg.tmp.ensured) #19
  %m_reader.i = getelementptr inbounds i8, ptr %this, i64 8
  %1 = load ptr, ptr %m_reader.i, align 8
  %mCurrent.i.i = getelementptr inbounds i8, ptr %1, i64 24
  %2 = load ptr, ptr %mCurrent.i.i, align 8
  %add.ptr.i.i = getelementptr inbounds i8, ptr %2, i64 12
  store ptr %add.ptr.i.i, ptr %mCurrent.i.i, align 8
  %mLimit.i.i = getelementptr inbounds i8, ptr %1, i64 40
  %3 = load ptr, ptr %mLimit.i.i, align 8
  %cmp.i.i = icmp ugt ptr %add.ptr.i.i, %3
  br i1 %cmp.i.i, label %if.then.i.i, label %_ZN6Assimp4Ogre20OgreBinarySerializer9SkipBytesEm.exit

if.then.i.i:                                      ; preds = %entry
  %exception.i.i = call ptr @__cxa_allocate_exception(i64 16) #19
  invoke void @_ZN17DeadlyImportErrorC2EPKc(ptr noundef nonnull align 8 dereferenceable(16) %exception.i.i, ptr noundef nonnull @.str.68)
          to label %invoke.cont.i.i unwind label %lpad.i.i

invoke.cont.i.i:                                  ; preds = %if.then.i.i
  call void @__cxa_throw(ptr nonnull %exception.i.i, ptr nonnull @_ZTI17DeadlyImportError, ptr nonnull @_ZN17DeadlyImportErrorD2Ev) #20
  unreachable

lpad.i.i:                                         ; preds = %if.then.i.i
  %4 = landingpad { ptr, i32 }
          cleanup
  call void @__cxa_free_exception(ptr %exception.i.i) #19
  resume { ptr, i32 } %4

_ZN6Assimp4Ogre20OgreBinarySerializer9SkipBytesEm.exit: ; preds = %entry
  ret void
}